target datalayout = "e-m:e-p270:32:32-p271:32:32-p272:64:64-i64:64-i128:128-f80:128-n8:16:32:64-S128"
target triple = "x86_64-pc-linux-gnu"

; Function Attrs: nounwind uwtable
define void @lv_draw_sw_rgb565_swap(ptr noundef %0, i32 noundef %1) #0 {
  %3 = alloca ptr, align 8
  %4 = alloca i32, align 4
  %5 = alloca i32, align 4
  %6 = alloca ptr, align 8
  %7 = alloca ptr, align 8
  %8 = alloca i32, align 4
  store ptr %0, ptr %3, align 8, !tbaa !7
  store i32 %1, ptr %4, align 4, !tbaa !3
  call void @llvm.lifetime.start.p0(i64 4, ptr %5) #4
  %9 = load i32, ptr %4, align 4, !tbaa !3
  %10 = udiv i32 %9, 2
  store i32 %10, ptr %5, align 4, !tbaa !3
  call void @llvm.lifetime.start.p0(i64 8, ptr %6) #4
  %11 = load ptr, ptr %3, align 8, !tbaa !7
  store ptr %11, ptr %6, align 8, !tbaa !7
  call void @llvm.lifetime.start.p0(i64 8, ptr %7) #4
  %12 = load ptr, ptr %3, align 8, !tbaa !7
  store ptr %12, ptr %7, align 8, !tbaa !7
  br label %13

13:                                               ; preds = %16, %2
  %14 = load i32, ptr %5, align 4, !tbaa !3
  %15 = icmp uge i32 %14, 8
  br i1 %15, label %16, label %125

16:                                               ; preds = %13
  %17 = load ptr, ptr %7, align 8, !tbaa !7
  %18 = getelementptr inbounds i32, ptr %17, i64 0
  %19 = load i32, ptr %18, align 4, !tbaa !3
  %20 = and i32 %19, -16711936
  %21 = lshr i32 %20, 8
  %22 = load ptr, ptr %7, align 8, !tbaa !7
  %23 = getelementptr inbounds i32, ptr %22, i64 0
  %24 = load i32, ptr %23, align 4, !tbaa !3
  %25 = and i32 %24, 16711935
  %26 = shl i32 %25, 8
  %27 = or i32 %21, %26
  %28 = load ptr, ptr %7, align 8, !tbaa !7
  %29 = getelementptr inbounds i32, ptr %28, i64 0
  store i32 %27, ptr %29, align 4, !tbaa !3
  %30 = load ptr, ptr %7, align 8, !tbaa !7
  %31 = getelementptr inbounds i32, ptr %30, i64 1
  %32 = load i32, ptr %31, align 4, !tbaa !3
  %33 = and i32 %32, -16711936
  %34 = lshr i32 %33, 8
  %35 = load ptr, ptr %7, align 8, !tbaa !7
  %36 = getelementptr inbounds i32, ptr %35, i64 1
  %37 = load i32, ptr %36, align 4, !tbaa !3
  %38 = and i32 %37, 16711935
  %39 = shl i32 %38, 8
  %40 = or i32 %34, %39
  %41 = load ptr, ptr %7, align 8, !tbaa !7
  %42 = getelementptr inbounds i32, ptr %41, i64 1
  store i32 %40, ptr %42, align 4, !tbaa !3
  %43 = load ptr, ptr %7, align 8, !tbaa !7
  %44 = getelementptr inbounds i32, ptr %43, i64 2
  %45 = load i32, ptr %44, align 4, !tbaa !3
  %46 = and i32 %45, -16711936
  %47 = lshr i32 %46, 8
  %48 = load ptr, ptr %7, align 8, !tbaa !7
  %49 = getelementptr inbounds i32, ptr %48, i64 2
  %50 = load i32, ptr %49, align 4, !tbaa !3
  %51 = and i32 %50, 16711935
  %52 = shl i32 %51, 8
  %53 = or i32 %47, %52
  %54 = load ptr, ptr %7, align 8, !tbaa !7
  %55 = getelementptr inbounds i32, ptr %54, i64 2
  store i32 %53, ptr %55, align 4, !tbaa !3
  %56 = load ptr, ptr %7, align 8, !tbaa !7
  %57 = getelementptr inbounds i32, ptr %56, i64 3
  %58 = load i32, ptr %57, align 4, !tbaa !3
  %59 = and i32 %58, -16711936
  %60 = lshr i32 %59, 8
  %61 = load ptr, ptr %7, align 8, !tbaa !7
  %62 = getelementptr inbounds i32, ptr %61, i64 3
  %63 = load i32, ptr %62, align 4, !tbaa !3
  %64 = and i32 %63, 16711935
  %65 = shl i32 %64, 8
  %66 = or i32 %60, %65
  %67 = load ptr, ptr %7, align 8, !tbaa !7
  %68 = getelementptr inbounds i32, ptr %67, i64 3
  store i32 %66, ptr %68, align 4, !tbaa !3
  %69 = load ptr, ptr %7, align 8, !tbaa !7
  %70 = getelementptr inbounds i32, ptr %69, i64 4
  %71 = load i32, ptr %70, align 4, !tbaa !3
  %72 = and i32 %71, -16711936
  %73 = lshr i32 %72, 8
  %74 = load ptr, ptr %7, align 8, !tbaa !7
  %75 = getelementptr inbounds i32, ptr %74, i64 4
  %76 = load i32, ptr %75, align 4, !tbaa !3
  %77 = and i32 %76, 16711935
  %78 = shl i32 %77, 8
  %79 = or i32 %73, %78
  %80 = load ptr, ptr %7, align 8, !tbaa !7
  %81 = getelementptr inbounds i32, ptr %80, i64 4
  store i32 %79, ptr %81, align 4, !tbaa !3
  %82 = load ptr, ptr %7, align 8, !tbaa !7
  %83 = getelementptr inbounds i32, ptr %82, i64 5
  %84 = load i32, ptr %83, align 4, !tbaa !3
  %85 = and i32 %84, -16711936
  %86 = lshr i32 %85, 8
  %87 = load ptr, ptr %7, align 8, !tbaa !7
  %88 = getelementptr inbounds i32, ptr %87, i64 5
  %89 = load i32, ptr %88, align 4, !tbaa !3
  %90 = and i32 %89, 16711935
  %91 = shl i32 %90, 8
  %92 = or i32 %86, %91
  %93 = load ptr, ptr %7, align 8, !tbaa !7
  %94 = getelementptr inbounds i32, ptr %93, i64 5
  store i32 %92, ptr %94, align 4, !tbaa !3
  %95 = load ptr, ptr %7, align 8, !tbaa !7
  %96 = getelementptr inbounds i32, ptr %95, i64 6
  %97 = load i32, ptr %96, align 4, !tbaa !3
  %98 = and i32 %97, -16711936
  %99 = lshr i32 %98, 8
  %100 = load ptr, ptr %7, align 8, !tbaa !7
  %101 = getelementptr inbounds i32, ptr %100, i64 6
  %102 = load i32, ptr %101, align 4, !tbaa !3
  %103 = and i32 %102, 16711935
  %104 = shl i32 %103, 8
  %105 = or i32 %99, %104
  %106 = load ptr, ptr %7, align 8, !tbaa !7
  %107 = getelementptr inbounds i32, ptr %106, i64 6
  store i32 %105, ptr %107, align 4, !tbaa !3
  %108 = load ptr, ptr %7, align 8, !tbaa !7
  %109 = getelementptr inbounds i32, ptr %108, i64 7
  %110 = load i32, ptr %109, align 4, !tbaa !3
  %111 = and i32 %110, -16711936
  %112 = lshr i32 %111, 8
  %113 = load ptr, ptr %7, align 8, !tbaa !7
  %114 = getelementptr inbounds i32, ptr %113, i64 7
  %115 = load i32, ptr %114, align 4, !tbaa !3
  %116 = and i32 %115, 16711935
  %117 = shl i32 %116, 8
  %118 = or i32 %112, %117
  %119 = load ptr, ptr %7, align 8, !tbaa !7
  %120 = getelementptr inbounds i32, ptr %119, i64 7
  store i32 %118, ptr %120, align 4, !tbaa !3
  %121 = load ptr, ptr %7, align 8, !tbaa !7
  %122 = getelementptr inbounds i32, ptr %121, i64 8
  store ptr %122, ptr %7, align 8, !tbaa !7
  %123 = load i32, ptr %5, align 4, !tbaa !3
  %124 = sub i32 %123, 8
  store i32 %124, ptr %5, align 4, !tbaa !3
  br label %13, !llvm.loop !45

125:                                              ; preds = %13
  br label %126

126:                                              ; preds = %129, %125
  %127 = load i32, ptr %5, align 4, !tbaa !3
  %128 = icmp ne i32 %127, 0
  br i1 %128, label %129, label %144

129:                                              ; preds = %126
  %130 = load ptr, ptr %7, align 8, !tbaa !7
  %131 = load i32, ptr %130, align 4, !tbaa !3
  %132 = and i32 %131, -16711936
  %133 = lshr i32 %132, 8
  %134 = load ptr, ptr %7, align 8, !tbaa !7
  %135 = load i32, ptr %134, align 4, !tbaa !3
  %136 = and i32 %135, 16711935
  %137 = shl i32 %136, 8
  %138 = or i32 %133, %137
  %139 = load ptr, ptr %7, align 8, !tbaa !7
  store i32 %138, ptr %139, align 4, !tbaa !3
  %140 = load ptr, ptr %7, align 8, !tbaa !7
  %141 = getelementptr inbounds nuw i32, ptr %140, i32 1
  store ptr %141, ptr %7, align 8, !tbaa !7
  %142 = load i32, ptr %5, align 4, !tbaa !3
  %143 = add i32 %142, -1
  store i32 %143, ptr %5, align 4, !tbaa !3
  br label %126, !llvm.loop !46

144:                                              ; preds = %126
  %145 = load i32, ptr %4, align 4, !tbaa !3
  %146 = and i32 %145, 1
  %147 = icmp ne i32 %146, 0
  br i1 %147, label %148, label %173

148:                                              ; preds = %144
  call void @llvm.lifetime.start.p0(i64 4, ptr %8) #4
  %149 = load i32, ptr %4, align 4, !tbaa !3
  %150 = sub i32 %149, 1
  store i32 %150, ptr %8, align 4, !tbaa !3
  %151 = load ptr, ptr %6, align 8, !tbaa !7
  %152 = load i32, ptr %8, align 4, !tbaa !3
  %153 = zext i32 %152 to i64
  %154 = getelementptr inbounds nuw i16, ptr %151, i64 %153
  %155 = load i16, ptr %154, align 2, !tbaa !47
  %156 = zext i16 %155 to i32
  %157 = and i32 %156, 65280
  %158 = ashr i32 %157, 8
  %159 = load ptr, ptr %6, align 8, !tbaa !7
  %160 = load i32, ptr %8, align 4, !tbaa !3
  %161 = zext i32 %160 to i64
  %162 = getelementptr inbounds nuw i16, ptr %159, i64 %161
  %163 = load i16, ptr %162, align 2, !tbaa !47
  %164 = zext i16 %163 to i32
  %165 = and i32 %164, 255
  %166 = shl i32 %165, 8
  %167 = or i32 %158, %166
  %168 = trunc i32 %167 to i16
  %169 = load ptr, ptr %6, align 8, !tbaa !7
  %170 = load i32, ptr %8, align 4, !tbaa !3
  %171 = zext i32 %170 to i64
  %172 = getelementptr inbounds nuw i16, ptr %169, i64 %171
  store i16 %168, ptr %172, align 2, !tbaa !47
  call void @llvm.lifetime.end.p0(i64 4, ptr %8) #4
  br label %173

173:                                              ; preds = %148, %144
  call void @llvm.lifetime.end.p0(i64 8, ptr %7) #4
  call void @llvm.lifetime.end.p0(i64 8, ptr %6) #4
  call void @llvm.lifetime.end.p0(i64 4, ptr %5) #4
  ret void
}