; Function Attrs: nofree norecurse nosync nounwind memory(argmem: readwrite) uwtable
define void @lv_draw_sw_rgb565_swap(ptr nocapture noundef %0, i32 noundef %1) local_unnamed_addr #3 {
  %3 = lshr i32 %1, 1
  %4 = icmp ugt i32 %1, 15
  br i1 %4, label %.lr.ph, label %.preheader

.preheader:                                       ; preds = %.lr.ph, %2
  %.043.lcssa = phi ptr [ %0, %2 ], [ %60, %.lr.ph ]
  %.0.lcssa = phi i32 [ %3, %2 ], [ %61, %.lr.ph ]
  %.not49 = icmp eq i32 %.0.lcssa, 0
  br i1 %.not49, label %._crit_edge, label %.lr.ph52

.lr.ph:                                           ; preds = %2, %.lr.ph
  %.047 = phi i32 [ %61, %.lr.ph ], [ %3, %2 ]
  %.04346 = phi ptr [ %60, %.lr.ph ], [ %0, %2 ]
  %5 = load i32, ptr %.04346, align 4, !tbaa !37
  %6 = lshr i32 %5, 8
  %7 = and i32 %6, 16711935
  %8 = shl i32 %5, 8
  %9 = and i32 %8, -16711936
  %10 = or disjoint i32 %7, %9
  store i32 %10, ptr %.04346, align 4, !tbaa !37
  %11 = getelementptr inbounds i8, ptr %.04346, i64 4
  %12 = load i32, ptr %11, align 4, !tbaa !37
  %13 = lshr i32 %12, 8
  %14 = and i32 %13, 16711935
  %15 = shl i32 %12, 8
  %16 = and i32 %15, -16711936
  %17 = or disjoint i32 %14, %16
  store i32 %17, ptr %11, align 4, !tbaa !37
  %18 = getelementptr inbounds i8, ptr %.04346, i64 8
  %19 = load i32, ptr %18, align 4, !tbaa !37
  %20 = lshr i32 %19, 8
  %21 = and i32 %20, 16711935
  %22 = shl i32 %19, 8
  %23 = and i32 %22, -16711936
  %24 = or disjoint i32 %21, %23
  store i32 %24, ptr %18, align 4, !tbaa !37
  %25 = getelementptr inbounds i8, ptr %.04346, i64 12
  %26 = load i32, ptr %25, align 4, !tbaa !37
  %27 = lshr i32 %26, 8
  %28 = and i32 %27, 16711935
  %29 = shl i32 %26, 8
  %30 = and i32 %29, -16711936
  %31 = or disjoint i32 %28, %30
  store i32 %31, ptr %25, align 4, !tbaa !37
  %32 = getelementptr inbounds i8, ptr %.04346, i64 16
  %33 = load i32, ptr %32, align 4, !tbaa !37
  %34 = lshr i32 %33, 8
  %35 = and i32 %34, 16711935
  %36 = shl i32 %33, 8
  %37 = and i32 %36, -16711936
  %38 = or disjoint i32 %35, %37
  store i32 %38, ptr %32, align 4, !tbaa !37
  %39 = getelementptr inbounds i8, ptr %.04346, i64 20
  %40 = load i32, ptr %39, align 4, !tbaa !37
  %41 = lshr i32 %40, 8
  %42 = and i32 %41, 16711935
  %43 = shl i32 %40, 8
  %44 = and i32 %43, -16711936
  %45 = or disjoint i32 %42, %44
  store i32 %45, ptr %39, align 4, !tbaa !37
  %46 = getelementptr inbounds i8, ptr %.04346, i64 24
  %47 = load i32, ptr %46, align 4, !tbaa !37
  %48 = lshr i32 %47, 8
  %49 = and i32 %48, 16711935
  %50 = shl i32 %47, 8
  %51 = and i32 %50, -16711936
  %52 = or disjoint i32 %49, %51
  store i32 %52, ptr %46, align 4, !tbaa !37
  %53 = getelementptr inbounds i8, ptr %.04346, i64 28
  %54 = load i32, ptr %53, align 4, !tbaa !37
  %55 = lshr i32 %54, 8
  %56 = and i32 %55, 16711935
  %57 = shl i32 %54, 8
  %58 = and i32 %57, -16711936
  %59 = or disjoint i32 %56, %58
  store i32 %59, ptr %53, align 4, !tbaa !37
  %60 = getelementptr inbounds i8, ptr %.04346, i64 32
  %61 = add nsw i32 %.047, -8
  %62 = icmp ugt i32 %61, 7
  br i1 %62, label %.lr.ph, label %.preheader, !llvm.loop !38

.lr.ph52:                                         ; preds = %.preheader, %.lr.ph52
  %.151 = phi i32 [ %70, %.lr.ph52 ], [ %.0.lcssa, %.preheader ]
  %.14450 = phi ptr [ %69, %.lr.ph52 ], [ %.043.lcssa, %.preheader ]
  %63 = load i32, ptr %.14450, align 4, !tbaa !37
  %64 = lshr i32 %63, 8
  %65 = and i32 %64, 16711935
  %66 = shl i32 %63, 8
  %67 = and i32 %66, -16711936
  %68 = or disjoint i32 %65, %67
  store i32 %68, ptr %.14450, align 4, !tbaa !37
  %69 = getelementptr inbounds nuw i8, ptr %.14450, i64 4
  %70 = add nsw i32 %.151, -1
  %.not = icmp eq i32 %70, 0
  br i1 %.not, label %._crit_edge, label %.lr.ph52, !llvm.loop !40

._crit_edge:                                      ; preds = %.lr.ph52, %.preheader
  %71 = and i32 %1, 1
  %.not45 = icmp eq i32 %71, 0
  br i1 %.not45, label %77, label %72

72:                                               ; preds = %._crit_edge
  %73 = add nsw i32 %1, -1
  %74 = zext i32 %73 to i64
  %75 = getelementptr inbounds nuw i16, ptr %0, i64 %74
  %76 = load i16, ptr %75, align 2, !tbaa !41
  %rev = tail call i16 @llvm.bswap.i16(i16 %76)
  store i16 %rev, ptr %75, align 2, !tbaa !41
  br label %77

77:                                               ; preds = %72, %._crit_edge
  ret void
}